
boot_rom.elf:     file format elf32-littleriscv


Disassembly of section .text:

00000000 <entry>:
   0:	200305b7          	lui	a1,0x20030
   4:	0045c503          	lbu	a0,4(a1) # 20030004 <_end+0x2002ff22>
   8:	c119                	beqz	a0,e <boot>
   a:	4588                	lw	a0,8(a1)
   c:	9502                	jalr	a0

0000000e <boot>:
   e:	200005b7          	lui	a1,0x20000
  12:	0085c503          	lbu	a0,8(a1) # 20000008 <_end+0x1fffff26>
  16:	e511                	bnez	a0,22 <_jump_to_flash>

00000018 <_jump_to_debug_rom>:
  18:	00c5c503          	lbu	a0,12(a1)
  1c:	d175                	beqz	a0,0 <entry>
  1e:	498c                	lw	a1,16(a1)
  20:	9582                	jalr	a1

00000022 <_jump_to_flash>:
  22:	0145c503          	lbu	a0,20(a1)
  26:	c911                	beqz	a0,3a <_copy_from_flash>

00000028 <_execute_from_flash>:
  28:	200285b7          	lui	a1,0x20028
  2c:	4505                	li	a0,1
  2e:	c188                	sw	a0,0(a1)
  30:	400005b7          	lui	a1,0x40000
  34:	18058593          	addi	a1,a1,384 # 40000180 <_end+0x4000009e>
  38:	9582                	jalr	a1

0000003a <_copy_from_flash>:
  3a:	200205b7          	lui	a1,0x20020
  3e:	80000537          	lui	a0,0x80000
  42:	4998                	lw	a4,16(a1)
  44:	8f49                	or	a4,a4,a0
  46:	c998                	sw	a4,16(a1)
  48:	0fff0737          	lui	a4,0xfff0
  4c:	0705                	addi	a4,a4,1
  4e:	cd98                	sw	a4,24(a1)
  50:	4501                	li	a0,0
  52:	d188                	sw	a0,32(a1)
  54:	4998                	lw	a4,16(a1)
  56:	f0077713          	andi	a4,a4,-256
  5a:	00876713          	ori	a4,a4,8
  5e:	c998                	sw	a4,16(a1)
  60:	0ab00713          	li	a4,171
  64:	d598                	sw	a4,40(a1)
  66:	6709                	lui	a4,0x2
  68:	070d                	addi	a4,a4,3
  6a:	d1d8                	sw	a4,36(a1)

0000006c <_wait_spi_ready_cmd_pwr>:
  6c:	49d8                	lw	a4,20(a1)
  6e:	fe075fe3          	bgez	a4,6c <_wait_spi_ready_cmd_pwr>
  72:	470d                	li	a4,3
  74:	d598                	sw	a4,40(a1)
  76:	0001                	nop

00000078 <_wait_spi_ready_tx_init>:
  78:	49d8                	lw	a4,20(a1)
  7a:	fe075fe3          	bgez	a4,78 <_wait_spi_ready_tx_init>
  7e:	6709                	lui	a4,0x2
  80:	20370713          	addi	a4,a4,515 # 2203 <_end+0x2121>
  84:	d1d8                	sw	a4,36(a1)
  86:	0001                	nop

00000088 <_wait_spi_ready_read_prog>:
  88:	49dc                	lw	a5,20(a1)
  8a:	fe07dfe3          	bgez	a5,88 <_wait_spi_ready_read_prog>
  8e:	40000693          	li	a3,1024
  92:	4481                	li	s1,0
  94:	10000b13          	li	s6,256
  98:	6405                	lui	s0,0x1
  9a:	2ff40a93          	addi	s5,s0,767 # 12ff <_end+0x121d>

0000009e <_32B_chunk_loop>:
  9e:	00db4463          	blt	s6,a3,a6 <_read_32B_chunk>
  a2:	0ff40a93          	addi	s5,s0,255

000000a6 <_read_32B_chunk>:
  a6:	0355a223          	sw	s5,36(a1) # 20020024 <_end+0x2001ff42>
  aa:	0001                	nop

000000ac <_wait_spi_ready_read_32B_chunk>:
  ac:	49dc                	lw	a5,20(a1)
  ae:	fe07dfe3          	bgez	a5,ac <_wait_spi_ready_read_32B_chunk>
  b2:	10048b93          	addi	s7,s1,256

000000b6 <_wait_spi_rxwm_8_words>:
  b6:	49dc                	lw	a5,20(a1)
  b8:	83d1                	srli	a5,a5,0x14
  ba:	8b85                	andi	a5,a5,1
  bc:	dfed                	beqz	a5,b6 <_wait_spi_rxwm_8_words>
  be:	02048613          	addi	a2,s1,32

000000c2 <_spi_fifo_read_8_words>:
  c2:	0285a883          	lw	a7,40(a1)
  c6:	0114a023          	sw	a7,0(s1)
  ca:	0491                	addi	s1,s1,4
  cc:	fec49be3          	bne	s1,a2,c2 <_spi_fifo_read_8_words>
  d0:	ff7493e3          	bne	s1,s7,b6 <_wait_spi_rxwm_8_words>
  d4:	f0068693          	addi	a3,a3,-256
  d8:	f2f9                	bnez	a3,9e <_32B_chunk_loop>
  da:	200005b7          	lui	a1,0x20000
  de:	4990                	lw	a2,16(a1)
  e0:	9602                	jalr	a2
