
boot_rom.elf:     file format elf32-littleriscv


Disassembly of section .text:

00000000 <entry>:
   0:	200305b7          	lui	a1,0x20030
   4:	0045c503          	lbu	a0,4(a1) # 20030004 <_end+0x2002fd48>
   8:	00050663          	beqz	a0,14 <boot>
   c:	0085a503          	lw	a0,8(a1)
  10:	000500e7          	jalr	a0

00000014 <boot>:
  14:	200005b7          	lui	a1,0x20000
  18:	0085c503          	lbu	a0,8(a1) # 20000008 <_end+0x1ffffd4c>
  1c:	00051a63          	bnez	a0,30 <_jump_to_flash>

00000020 <_jump_to_debug_rom>:
  20:	00c5c503          	lbu	a0,12(a1)
  24:	fc050ee3          	beqz	a0,0 <entry>
  28:	0105a583          	lw	a1,16(a1)
  2c:	000580e7          	jalr	a1

00000030 <_jump_to_flash>:
  30:	0145c503          	lbu	a0,20(a1)
  34:	00050e63          	beqz	a0,50 <_copy_from_flash>

00000038 <_execute_from_flash>:
  38:	200285b7          	lui	a1,0x20028
  3c:	00100513          	li	a0,1
  40:	00a5a023          	sw	a0,0(a1) # 20028000 <_end+0x20027d44>
  44:	400005b7          	lui	a1,0x40000
  48:	19058593          	addi	a1,a1,400 # 40000190 <_end+0x3ffffed4>
  4c:	000580e7          	jalr	a1

00000050 <_copy_from_flash>:
  50:	200205b7          	lui	a1,0x20020
  54:	80000537          	lui	a0,0x80000
  58:	0105a703          	lw	a4,16(a1) # 20020010 <_end+0x2001fd54>
  5c:	00a76733          	or	a4,a4,a0
  60:	00e5a823          	sw	a4,16(a1)
  64:	0fff0737          	lui	a4,0xfff0
  68:	00170713          	addi	a4,a4,1 # fff0001 <_end+0xffefd45>
  6c:	00e5ac23          	sw	a4,24(a1)
  70:	00000513          	li	a0,0
  74:	02a5a023          	sw	a0,32(a1)
  78:	0105a703          	lw	a4,16(a1)
  7c:	f0077713          	andi	a4,a4,-256
  80:	00376713          	ori	a4,a4,3
  84:	00e5a823          	sw	a4,16(a1)
  88:	0ab00713          	li	a4,171
  8c:	02e5a423          	sw	a4,40(a1)
  90:	00002737          	lui	a4,0x2
  94:	00370713          	addi	a4,a4,3 # 2003 <_end+0x1d47>
  98:	02e5a223          	sw	a4,36(a1)

0000009c <_wait_spi_ready_cmd_pwr>:
  9c:	0145a703          	lw	a4,20(a1)
  a0:	fe075ee3          	bgez	a4,9c <_wait_spi_ready_cmd_pwr>
  a4:	00300713          	li	a4,3
  a8:	02e5a423          	sw	a4,40(a1)

000000ac <_wait_spi_ready_tx_init>:
  ac:	00000013          	nop
  b0:	0145a703          	lw	a4,20(a1)
  b4:	fe075ce3          	bgez	a4,ac <_wait_spi_ready_tx_init>
  b8:	00002737          	lui	a4,0x2
  bc:	20370713          	addi	a4,a4,515 # 2203 <_end+0x1f47>
  c0:	02e5a223          	sw	a4,36(a1)

000000c4 <_wait_spi_ready_read_init_cmd>:
  c4:	00000013          	nop
  c8:	0145a703          	lw	a4,20(a1)
  cc:	fe075ce3          	bgez	a4,c4 <_wait_spi_ready_read_init_cmd>
  d0:	00001737          	lui	a4,0x1
  d4:	00b70713          	addi	a4,a4,11 # 100b <_end+0xd4f>
  d8:	02e5a223          	sw	a4,36(a1)

000000dc <_wait_spi_ready_rx_cmd>:
  dc:	00000013          	nop
  e0:	0145a703          	lw	a4,20(a1)
  e4:	fe075ce3          	bgez	a4,dc <_wait_spi_ready_rx_cmd>

000000e8 <_wait_spi_rxwm_init>:
  e8:	0145a703          	lw	a4,20(a1)
  ec:	01475713          	srli	a4,a4,0x14
  f0:	00177713          	andi	a4,a4,1
  f4:	fe070ae3          	beqz	a4,e8 <_wait_spi_rxwm_init>
  f8:	0285a603          	lw	a2,40(a1)
  fc:	0285a683          	lw	a3,40(a1)
 100:	0285a483          	lw	s1,40(a1)
 104:	0105a783          	lw	a5,16(a1)
 108:	f007f793          	andi	a5,a5,-256
 10c:	0087e793          	ori	a5,a5,8
 110:	00f5a823          	sw	a5,16(a1)
 114:	01861713          	slli	a4,a2,0x18
 118:	01065413          	srli	s0,a2,0x10
 11c:	01841413          	slli	s0,s0,0x18
 120:	01045413          	srli	s0,s0,0x10
 124:	01061793          	slli	a5,a2,0x10
 128:	0187d793          	srli	a5,a5,0x18
 12c:	01079793          	slli	a5,a5,0x10
 130:	00876733          	or	a4,a4,s0
 134:	00f76633          	or	a2,a4,a5
 138:	00366613          	ori	a2,a2,3
 13c:	02c5a423          	sw	a2,40(a1)

00000140 <_wait_spi_ready_read_prog>:
 140:	00000013          	nop
 144:	0145a783          	lw	a5,20(a1)
 148:	fe07dce3          	bgez	a5,140 <_wait_spi_ready_read_prog>
 14c:	00002737          	lui	a4,0x2
 150:	20370713          	addi	a4,a4,515 # 2203 <_end+0x1f47>
 154:	02e5a223          	sw	a4,36(a1)

00000158 <_wait_spi_ready_copy_cmd>:
 158:	00000013          	nop
 15c:	0145a703          	lw	a4,20(a1)
 160:	fe075ce3          	bgez	a4,158 <_wait_spi_ready_copy_cmd>
 164:	00068413          	mv	s0,a3
 168:	10000b13          	li	s6,256
 16c:	00001ab7          	lui	s5,0x1
 170:	2ffa8a93          	addi	s5,s5,767 # 12ff <_end+0x1043>

00000174 <_32B_chunk_loop>:
 174:	028b4463          	blt	s6,s0,19c <_read_32B_chunk>
 178:	000017b7          	lui	a5,0x1
 17c:	1ff7e793          	ori	a5,a5,511
 180:	02f5a223          	sw	a5,36(a1)

00000184 <_wait_spi_ready_remaining_bytes>:
 184:	00000013          	nop
 188:	0145a783          	lw	a5,20(a1)
 18c:	fe07dce3          	bgez	a5,184 <_wait_spi_ready_remaining_bytes>
 190:	00000413          	li	s0,0
 194:	02000a13          	li	s4,32
 198:	0cc0006f          	j	264 <_last_bytes_read_start>

0000019c <_read_32B_chunk>:
 19c:	0355a223          	sw	s5,36(a1)

000001a0 <_wait_spi_ready_read_32B_chunk>:
 1a0:	00000013          	nop
 1a4:	0145a783          	lw	a5,20(a1)
 1a8:	fe07dce3          	bgez	a5,1a0 <_wait_spi_ready_read_32B_chunk>
 1ac:	40048b93          	addi	s7,s1,1024

000001b0 <_wait_spi_rxwm_8_words>:
 1b0:	0145a783          	lw	a5,20(a1)
 1b4:	0147d793          	srli	a5,a5,0x14
 1b8:	0017f793          	andi	a5,a5,1
 1bc:	fe078ae3          	beqz	a5,1b0 <_wait_spi_rxwm_8_words>
 1c0:	0285a883          	lw	a7,40(a1)
 1c4:	0285a283          	lw	t0,40(a1)
 1c8:	0285a303          	lw	t1,40(a1)
 1cc:	0285a383          	lw	t2,40(a1)
 1d0:	0285ae03          	lw	t3,40(a1)
 1d4:	0285ae83          	lw	t4,40(a1)
 1d8:	0285af03          	lw	t5,40(a1)
 1dc:	0285af83          	lw	t6,40(a1)
 1e0:	0114a023          	sw	a7,0(s1)
 1e4:	0054a223          	sw	t0,4(s1)
 1e8:	0064a423          	sw	t1,8(s1)
 1ec:	0074a623          	sw	t2,12(s1)
 1f0:	01c4a823          	sw	t3,16(s1)
 1f4:	01d4aa23          	sw	t4,20(s1)
 1f8:	01e4ac23          	sw	t5,24(s1)
 1fc:	01f4ae23          	sw	t6,28(s1)
 200:	02048493          	addi	s1,s1,32
 204:	fb7496e3          	bne	s1,s7,1b0 <_wait_spi_rxwm_8_words>
 208:	f0040413          	addi	s0,s0,-256
 20c:	f69ff06f          	j	174 <_32B_chunk_loop>

00000210 <_wait_spi_rxwm_8_words_1>:
 210:	0145a783          	lw	a5,20(a1)
 214:	0147d793          	srli	a5,a5,0x14
 218:	0017f793          	andi	a5,a5,1
 21c:	fe078ae3          	beqz	a5,210 <_wait_spi_rxwm_8_words_1>
 220:	0285a883          	lw	a7,40(a1)
 224:	0285a283          	lw	t0,40(a1)
 228:	0285a303          	lw	t1,40(a1)
 22c:	0285a383          	lw	t2,40(a1)
 230:	0285ae03          	lw	t3,40(a1)
 234:	0285ae83          	lw	t4,40(a1)
 238:	0285af03          	lw	t5,40(a1)
 23c:	0285af83          	lw	t6,40(a1)
 240:	0114a023          	sw	a7,0(s1)
 244:	0054a223          	sw	t0,4(s1)
 248:	0064a423          	sw	t1,8(s1)
 24c:	0074a623          	sw	t2,12(s1)
 250:	01c4a823          	sw	t3,16(s1)
 254:	01d4aa23          	sw	t4,20(s1)
 258:	01e4ac23          	sw	t5,24(s1)
 25c:	01f4ae23          	sw	t6,28(s1)
 260:	fe040413          	addi	s0,s0,-32

00000264 <_last_bytes_read_start>:
 264:	02048493          	addi	s1,s1,32
 268:	fa8a64e3          	bltu	s4,s0,210 <_wait_spi_rxwm_8_words_1>
 26c:	0105a703          	lw	a4,16(a1)
 270:	f0077713          	andi	a4,a4,-256
 274:	00245793          	srli	a5,s0,0x2
 278:	00e7e7b3          	or	a5,a5,a4
 27c:	00f5a823          	sw	a5,16(a1)

00000280 <_wait_spi_rxwm_n_words>:
 280:	0145a783          	lw	a5,20(a1)
 284:	0147d793          	srli	a5,a5,0x14
 288:	0017f793          	andi	a5,a5,1
 28c:	fe078ae3          	beqz	a5,280 <_wait_spi_rxwm_n_words>

00000290 <_remaining_bytes_loop>:
 290:	00041863          	bnez	s0,2a0 <_spi_read_word>
 294:	200005b7          	lui	a1,0x20000
 298:	0105a583          	lw	a1,16(a1) # 20000010 <_end+0x1ffffd54>
 29c:	000580e7          	jalr	a1

000002a0 <_spi_read_word>:
 2a0:	0285a883          	lw	a7,40(a1)
 2a4:	0114a023          	sw	a7,0(s1)
 2a8:	ffc40413          	addi	s0,s0,-4
 2ac:	00448493          	addi	s1,s1,4
 2b0:	fe1ff06f          	j	290 <_remaining_bytes_loop>
 2b4:	00000013          	nop
 2b8:	00000013          	nop
